; Function Attrs: mustprogress nounwind uwtable
define internal fastcc void @_ZNSt8_Rb_treeINSt7__cxx1112basic_stringIcSt11char_traitsIcESaIcEEESt4pairIKS5_St3mapIN4llvm3MVT15SimpleValueTypeES8_ISB_St8multimapIiN12_GLOBAL__N_115InstructionMemoESt4lessIiESaIS6_IKiSE_EEESF_ISB_ESaIS6_IKSB_SK_EEESL_SaIS6_ISM_SP_EEEESt10_Select1stIST_ESF_IS5_ESaIST_EE8_M_eraseEPSt13_Rb_tree_nodeIST_E(ptr noundef %0) unnamed_addr #0 align 2 {
  %.not1 = icmp eq ptr %0, null
  br i1 %.not1, label %._crit_edge, label %.lr.ph

.lr.ph:                                           ; preds = %1, %.lr.ph
  %.02 = phi ptr [ %.0.val6, %.lr.ph ], [ %0, %1 ]
  %2 = getelementptr i8, ptr %.02, i64 24
  %.0.val = load ptr, ptr %2, align 8
  tail call fastcc void @_ZNSt8_Rb_treeINSt7__cxx1112basic_stringIcSt11char_traitsIcESaIcEEESt4pairIKS5_St3mapIN4llvm3MVT15SimpleValueTypeES8_ISB_St8multimapIiN12_GLOBAL__N_115InstructionMemoESt4lessIiESaIS6_IKiSE_EEESF_ISB_ESaIS6_IKSB_SK_EEESL_SaIS6_ISM_SP_EEEESt10_Select1stIST_ESF_IS5_ESaIST_EE8_M_eraseEPSt13_Rb_tree_nodeIST_E(ptr noundef %.0.val)
  %3 = getelementptr i8, ptr %.02, i64 16
  %.0.val6 = load ptr, ptr %3, align 8
  %4 = getelementptr inbounds nuw i8, ptr %.02, i64 32
  %5 = getelementptr inbounds i8, ptr %.02, i64 80
  %.val.i.i.i.i.i = load ptr, ptr %5, align 8
  tail call fastcc void @_ZNSt8_Rb_treeIN4llvm3MVT15SimpleValueTypeESt4pairIKS2_St3mapIS2_St8multimapIiN12_GLOBAL__N_115InstructionMemoESt4lessIiESaIS3_IKiS8_EEES9_IS2_ESaIS3_IS4_SE_EEEESt10_Select1stISJ_ESF_SaISJ_EE8_M_eraseEPSt13_Rb_tree_nodeISJ_E(ptr noundef %.val.i.i.i.i.i)
  tail call void @_ZNSt7__cxx1112basic_stringIcSt11char_traitsIcESaIcEED1Ev(ptr noundef nonnull align 8 dereferenceable(32) %4) #18
  tail call void @_ZdlPvm(ptr noundef nonnull %.02, i64 noundef 112) #21
  %.not = icmp eq ptr %.0.val6, null
  br i1 %.not, label %._crit_edge, label %.lr.ph, !llvm.loop !115

._crit_edge:                                      ; preds = %.lr.ph, %1
  ret void
}